; Function Attrs: mustprogress nofree norecurse nosync nounwind willreturn memory(argmem: read) uwtable
define dso_local range(i32 0, 8) i32 @uv__fs_get_dirent_type(ptr noundef readonly captures(none) %0) local_unnamed_addr #12 {
  %2 = getelementptr inbounds nuw i8, ptr %0, i64 18
  %3 = load i8, ptr %2, align 2, !tbaa !79
  %switch.tableidx = add i8 %3, -1
  %4 = icmp ult i8 %switch.tableidx, 12
  br i1 %4, label %switch.lookup, label %6

switch.lookup:                                    ; preds = %1
  %5 = zext nneg i8 %switch.tableidx to i64
  %switch.gep = getelementptr inbounds nuw [12 x i32], ptr @switch.table.uv__fs_get_dirent_type, i64 0, i64 %5
  %switch.load = load i32, ptr %switch.gep, align 4
  br label %6

6:                                                ; preds = %1, %switch.lookup
  %.0 = phi i32 [ %switch.load, %switch.lookup ], [ 0, %1 ]
  ret i32 %.0
}